target datalayout = "e-m:e-p270:32:32-p271:32:32-p272:64:64-i64:64-i128:128-f80:128-n8:16:32:64-S128"
target triple = "x86_64-pc-linux-gnu"

%struct.timespec = type { i64, i64 }

@H5_init_g = external global i8, align 1
@H5_libterm_g = external global i8, align 1

; Function Attrs: nounwind uwtable
define void @H5_nanosleep(i64 noundef %0) #0 {
  %2 = alloca i64, align 8
  %3 = alloca i64, align 8
  %4 = alloca %struct.timespec, align 8
  store i64 %0, ptr %2, align 8, !tbaa !18
  %5 = load i8, ptr @H5_init_g, align 1, !tbaa !19, !range !21, !noundef !22
  %6 = trunc i8 %5 to i1
  br i1 %6, label %11, label %7

7:                                                ; preds = %1
  %8 = load i8, ptr @H5_libterm_g, align 1, !tbaa !19, !range !21, !noundef !22
  %9 = trunc i8 %8 to i1
  %10 = xor i1 %9, true
  br label %11

11:                                               ; preds = %7, %1
  %12 = phi i1 [ true, %1 ], [ %10, %7 ]
  %13 = xor i1 %12, true
  %14 = xor i1 %13, true
  %15 = zext i1 %14 to i32
  %16 = sext i32 %15 to i64
  %17 = call i64 @llvm.expect.i64(i64 %16, i64 1)
  %18 = icmp ne i64 %17, 0
  br i1 %18, label %19, label %36

19:                                               ; preds = %11
  call void @llvm.lifetime.start.p0(i64 8, ptr %3) #9
  store i64 1000000000, ptr %3, align 8, !tbaa !18
  call void @llvm.lifetime.start.p0(i64 16, ptr %4) #9
  %20 = load i64, ptr %2, align 8, !tbaa !18
  %21 = udiv i64 %20, 1000000000
  %22 = getelementptr inbounds nuw %struct.timespec, ptr %4, i32 0, i32 0
  store i64 %21, ptr %22, align 8, !tbaa !30
  %23 = load i64, ptr %2, align 8, !tbaa !18
  %24 = urem i64 %23, 1000000000
  %25 = getelementptr inbounds nuw %struct.timespec, ptr %4, i32 0, i32 1
  store i64 %24, ptr %25, align 8, !tbaa !32
  br label %26

26:                                               ; preds = %34, %19
  %27 = call i32 @nanosleep(ptr noundef %4, ptr noundef %4)
  %28 = icmp eq i32 %27, -1
  br i1 %28, label %29, label %35

29:                                               ; preds = %26
  %30 = call ptr @__errno_location() #12
  %31 = load i32, ptr %30, align 4, !tbaa !3
  %32 = icmp ne i32 %31, 4
  br i1 %32, label %33, label %34

33:                                               ; preds = %29
  br label %35

34:                                               ; preds = %29
  br label %26, !llvm.loop !33

35:                                               ; preds = %33, %26
  call void @llvm.lifetime.end.p0(i64 16, ptr %4) #9
  call void @llvm.lifetime.end.p0(i64 8, ptr %3) #9
  br label %36

36:                                               ; preds = %35, %11
  ret void
}