; Function Attrs: nounwind uwtable
define void @H5_nanosleep(i64 noundef %0) local_unnamed_addr #0 {
  %2 = alloca %struct.timespec, align 8
  %3 = load i8, ptr @H5_init_g, align 1, !tbaa !11, !range !13, !noundef !14
  %4 = trunc nuw i8 %3 to i1
  %5 = load i8, ptr @H5_libterm_g, align 1, !range !13
  %6 = trunc nuw i8 %5 to i1
  %7 = xor i1 %6, true
  %8 = select i1 %4, i1 true, i1 %7
  br i1 %8, label %9, label %20, !prof !15

9:                                                ; preds = %1
  call void @llvm.lifetime.start.p0(i64 16, ptr nonnull %2) #15
  %10 = udiv i64 %0, 1000000000
  store i64 %10, ptr %2, align 8, !tbaa !23
  %11 = urem i64 %0, 1000000000
  %12 = getelementptr inbounds nuw i8, ptr %2, i64 8
  store i64 %11, ptr %12, align 8, !tbaa !25
  br label %13

13:                                               ; preds = %16, %9
  %14 = call i32 @nanosleep(ptr noundef nonnull %2, ptr noundef nonnull %2) #15
  %15 = icmp eq i32 %14, -1
  br i1 %15, label %16, label %19

16:                                               ; preds = %13
  %17 = tail call ptr @__errno_location() #18
  %18 = load i32, ptr %17, align 4, !tbaa !26
  %.not = icmp eq i32 %18, 4
  br i1 %.not, label %13, label %19, !llvm.loop !27

19:                                               ; preds = %16, %13
  call void @llvm.lifetime.end.p0(i64 16, ptr nonnull %2) #15
  br label %20

20:                                               ; preds = %19, %1
  ret void
}